; Function Attrs: nounwind uwtable
define internal range(i32 0, 2) i32 @keccak_init(ptr noundef %0, ptr readnone captures(none) %1) #0 {
  %3 = tail call i32 @ossl_prov_is_running() #5
  %.not = icmp eq i32 %3, 0
  br i1 %.not, label %5, label %4

4:                                                ; preds = %2
  tail call void @ossl_sha3_reset(ptr noundef %0) #5
  br label %5

5:                                                ; preds = %2, %4
  %.0 = phi i32 [ 1, %4 ], [ 0, %2 ]
  ret i32 %.0
}